target datalayout = "e-m:e-p270:32:32-p271:32:32-p272:64:64-i64:64-i128:128-f80:128-n8:16:32:64-S128"
target triple = "x86_64-pc-linux-gnu"

%struct.jpeg_compress_struct = type { ptr, ptr, ptr, ptr, i32, i32, ptr, i32, i32, i32, i32, double, i32, i32, i32, ptr, [4 x ptr], [4 x ptr], [4 x ptr], [16 x i8], [16 x i8], [16 x i8], i32, ptr, i32, i32, i32, i32, i32, i32, i32, i32, i32, i8, i8, i8, i16, i16, i32, i32, i32, i32, i32, i32, i32, [4 x ptr], i32, i32, i32, [10 x i32], i32, i32, i32, i32, ptr, ptr, ptr, ptr, ptr, ptr, ptr, ptr, ptr, ptr, i32 }

; Function Attrs: nounwind uwtable
define internal void @grayscale_convert(ptr noundef %0, ptr noundef %1, ptr noundef %2, i32 noundef %3, i32 noundef %4) #0 {
  %6 = alloca ptr, align 8
  %7 = alloca ptr, align 8
  %8 = alloca ptr, align 8
  %9 = alloca i32, align 4
  %10 = alloca i32, align 4
  %11 = alloca ptr, align 8
  %12 = alloca ptr, align 8
  %13 = alloca i32, align 4
  %14 = alloca i32, align 4
  %15 = alloca i32, align 4
  store ptr %0, ptr %6, align 8, !tbaa !3
  store ptr %1, ptr %7, align 8, !tbaa !51
  store ptr %2, ptr %8, align 8, !tbaa !52
  store i32 %3, ptr %9, align 4, !tbaa !47
  store i32 %4, ptr %10, align 4, !tbaa !47
  call void @llvm.lifetime.start.p0(i64 8, ptr %11) #4
  call void @llvm.lifetime.start.p0(i64 8, ptr %12) #4
  call void @llvm.lifetime.start.p0(i64 4, ptr %13) #4
  call void @llvm.lifetime.start.p0(i64 4, ptr %14) #4
  %16 = load ptr, ptr %6, align 8, !tbaa !3
  %17 = getelementptr inbounds nuw %struct.jpeg_compress_struct, ptr %16, i32 0, i32 7
  %18 = load i32, ptr %17, align 8, !tbaa !54
  store i32 %18, ptr %14, align 4, !tbaa !47
  call void @llvm.lifetime.start.p0(i64 4, ptr %15) #4
  %19 = load ptr, ptr %6, align 8, !tbaa !3
  %20 = getelementptr inbounds nuw %struct.jpeg_compress_struct, ptr %19, i32 0, i32 9
  %21 = load i32, ptr %20, align 8, !tbaa !46
  store i32 %21, ptr %15, align 4, !tbaa !47
  br label %22

22:                                               ; preds = %58, %5
  %23 = load i32, ptr %10, align 4, !tbaa !47
  %24 = add nsw i32 %23, -1
  store i32 %24, ptr %10, align 4, !tbaa !47
  %25 = icmp sge i32 %24, 0
  br i1 %25, label %26, label %59

26:                                               ; preds = %22
  %27 = load ptr, ptr %7, align 8, !tbaa !51
  %28 = getelementptr inbounds nuw ptr, ptr %27, i32 1
  store ptr %28, ptr %7, align 8, !tbaa !51
  %29 = load ptr, ptr %27, align 8, !tbaa !55
  store ptr %29, ptr %11, align 8, !tbaa !55
  %30 = load ptr, ptr %8, align 8, !tbaa !52
  %31 = getelementptr inbounds ptr, ptr %30, i64 0
  %32 = load ptr, ptr %31, align 8, !tbaa !51
  %33 = load i32, ptr %9, align 4, !tbaa !47
  %34 = zext i32 %33 to i64
  %35 = getelementptr inbounds nuw ptr, ptr %32, i64 %34
  %36 = load ptr, ptr %35, align 8, !tbaa !55
  store ptr %36, ptr %12, align 8, !tbaa !55
  %37 = load i32, ptr %9, align 4, !tbaa !47
  %38 = add i32 %37, 1
  store i32 %38, ptr %9, align 4, !tbaa !47
  store i32 0, ptr %13, align 4, !tbaa !47
  br label %39

39:                                               ; preds = %55, %26
  %40 = load i32, ptr %13, align 4, !tbaa !47
  %41 = load i32, ptr %14, align 4, !tbaa !47
  %42 = icmp ult i32 %40, %41
  br i1 %42, label %43, label %58

43:                                               ; preds = %39
  %44 = load ptr, ptr %11, align 8, !tbaa !55
  %45 = getelementptr inbounds i8, ptr %44, i64 0
  %46 = load i8, ptr %45, align 1, !tbaa !34
  %47 = load ptr, ptr %12, align 8, !tbaa !55
  %48 = load i32, ptr %13, align 4, !tbaa !47
  %49 = zext i32 %48 to i64
  %50 = getelementptr inbounds nuw i8, ptr %47, i64 %49
  store i8 %46, ptr %50, align 1, !tbaa !34
  %51 = load i32, ptr %15, align 4, !tbaa !47
  %52 = load ptr, ptr %11, align 8, !tbaa !55
  %53 = sext i32 %51 to i64
  %54 = getelementptr inbounds i8, ptr %52, i64 %53
  store ptr %54, ptr %11, align 8, !tbaa !55
  br label %55

55:                                               ; preds = %43
  %56 = load i32, ptr %13, align 4, !tbaa !47
  %57 = add i32 %56, 1
  store i32 %57, ptr %13, align 4, !tbaa !47
  br label %39, !llvm.loop !57

58:                                               ; preds = %39
  br label %22, !llvm.loop !59

59:                                               ; preds = %22
  call void @llvm.lifetime.end.p0(i64 4, ptr %15) #4
  call void @llvm.lifetime.end.p0(i64 4, ptr %14) #4
  call void @llvm.lifetime.end.p0(i64 4, ptr %13) #4
  call void @llvm.lifetime.end.p0(i64 8, ptr %12) #4
  call void @llvm.lifetime.end.p0(i64 8, ptr %11) #4
  ret void
}