; Function Attrs: nofree norecurse nosync nounwind memory(readwrite, inaccessiblemem: none) uwtable
define internal void @grayscale_convert(ptr noundef readonly captures(none) %0, ptr noundef readonly captures(none) %1, ptr noundef readonly captures(none) %2, i32 noundef %3, i32 noundef %4) #2 {
  %6 = getelementptr inbounds nuw i8, ptr %0, i64 48
  %7 = load i32, ptr %6, align 8, !tbaa !48
  %8 = icmp sgt i32 %4, 0
  br i1 %8, label %.lr.ph23, label %._crit_edge

.lr.ph23:                                         ; preds = %5
  %9 = getelementptr inbounds nuw i8, ptr %0, i64 56
  %10 = load i32, ptr %9, align 8, !tbaa !43
  %.not = icmp eq i32 %7, 0
  %11 = sext i32 %10 to i64
  br i1 %.not, label %._crit_edge, label %.lr.ph.us.preheader

.lr.ph.us.preheader:                              ; preds = %.lr.ph23
  %wide.trip.count = zext i32 %7 to i64
  br label %.lr.ph.us

.lr.ph.us:                                        ; preds = %.lr.ph.us.preheader, %..loopexit_crit_edge.us
  %.in = phi i32 [ %12, %..loopexit_crit_edge.us ], [ %4, %.lr.ph.us.preheader ]
  %.022.us = phi ptr [ %22, %..loopexit_crit_edge.us ], [ %1, %.lr.ph.us.preheader ]
  %.01421.us = phi i32 [ %23, %..loopexit_crit_edge.us ], [ %3, %.lr.ph.us.preheader ]
  %12 = add nsw i32 %.in, -1
  %13 = load ptr, ptr %.022.us, align 8, !tbaa !49
  %14 = load ptr, ptr %2, align 8, !tbaa !51
  %15 = zext i32 %.01421.us to i64
  %16 = getelementptr inbounds nuw ptr, ptr %14, i64 %15
  %17 = load ptr, ptr %16, align 8, !tbaa !49
  br label %18

18:                                               ; preds = %.lr.ph.us, %18
  %indvars.iv = phi i64 [ 0, %.lr.ph.us ], [ %indvars.iv.next, %18 ]
  %.01719.us = phi ptr [ %13, %.lr.ph.us ], [ %21, %18 ]
  %19 = load i8, ptr %.01719.us, align 1, !tbaa !32
  %20 = getelementptr inbounds nuw i8, ptr %17, i64 %indvars.iv
  store i8 %19, ptr %20, align 1, !tbaa !32
  %21 = getelementptr inbounds i8, ptr %.01719.us, i64 %11
  %indvars.iv.next = add nuw nsw i64 %indvars.iv, 1
  %exitcond.not = icmp eq i64 %indvars.iv.next, %wide.trip.count
  br i1 %exitcond.not, label %..loopexit_crit_edge.us, label %18, !llvm.loop !52

..loopexit_crit_edge.us:                          ; preds = %18
  %22 = getelementptr inbounds nuw i8, ptr %.022.us, i64 8
  %23 = add i32 %.01421.us, 1
  %24 = icmp sgt i32 %.in, 1
  br i1 %24, label %.lr.ph.us, label %._crit_edge, !llvm.loop !54

._crit_edge:                                      ; preds = %..loopexit_crit_edge.us, %.lr.ph23, %5
  ret void
}